target datalayout = "e-m:e-p270:32:32-p271:32:32-p272:64:64-i64:64-i128:128-f80:128-n8:16:32:64-S128"
target triple = "x86_64-pc-linux-gnu"

%struct.gmx_ana_index_t = type { i32, ptr, i32 }

; Function Attrs: mustprogress nounwind uwtable
define noundef zeroext i1 @_Z26gmx_ana_index_check_sortedP15gmx_ana_index_t(ptr noundef %0) #1 {
  %2 = alloca i1, align 1
  %3 = alloca ptr, align 8
  %4 = alloca i32, align 4
  %5 = alloca i32, align 4
  store ptr %0, ptr %3, align 8, !tbaa !232
  call void @llvm.lifetime.start.p0(i64 4, ptr %4) #19
  store i32 0, ptr %4, align 4, !tbaa !114
  br label %6

6:                                                ; preds = %32, %1
  %7 = load i32, ptr %4, align 4, !tbaa !114
  %8 = load ptr, ptr %3, align 8, !tbaa !232
  %9 = getelementptr inbounds nuw %struct.gmx_ana_index_t, ptr %8, i32 0, i32 0
  %10 = load i32, ptr %9, align 8, !tbaa !234
  %11 = sub nsw i32 %10, 1
  %12 = icmp slt i32 %7, %11
  br i1 %12, label %13, label %35

13:                                               ; preds = %6
  %14 = load ptr, ptr %3, align 8, !tbaa !232
  %15 = getelementptr inbounds nuw %struct.gmx_ana_index_t, ptr %14, i32 0, i32 1
  %16 = load ptr, ptr %15, align 8, !tbaa !236
  %17 = load i32, ptr %4, align 4, !tbaa !114
  %18 = add nsw i32 %17, 1
  %19 = sext i32 %18 to i64
  %20 = getelementptr inbounds i32, ptr %16, i64 %19
  %21 = load i32, ptr %20, align 4, !tbaa !114
  %22 = load ptr, ptr %3, align 8, !tbaa !232
  %23 = getelementptr inbounds nuw %struct.gmx_ana_index_t, ptr %22, i32 0, i32 1
  %24 = load ptr, ptr %23, align 8, !tbaa !236
  %25 = load i32, ptr %4, align 4, !tbaa !114
  %26 = sext i32 %25 to i64
  %27 = getelementptr inbounds i32, ptr %24, i64 %26
  %28 = load i32, ptr %27, align 4, !tbaa !114
  %29 = icmp sle i32 %21, %28
  br i1 %29, label %30, label %31

30:                                               ; preds = %13
  store i1 false, ptr %2, align 1
  store i32 1, ptr %5, align 4
  br label %36

31:                                               ; preds = %13
  br label %32

32:                                               ; preds = %31
  %33 = load i32, ptr %4, align 4, !tbaa !114
  %34 = add nsw i32 %33, 1
  store i32 %34, ptr %4, align 4, !tbaa !114
  br label %6, !llvm.loop !312

35:                                               ; preds = %6
  store i1 true, ptr %2, align 1
  store i32 1, ptr %5, align 4
  br label %36

36:                                               ; preds = %35, %30
  call void @llvm.lifetime.end.p0(i64 4, ptr %4) #19
  %37 = load i1, ptr %2, align 1
  ret i1 %37
}