; Function Attrs: mustprogress nofree norecurse nosync nounwind willreturn memory(read, inaccessiblemem: none) uwtable
define noundef zeroext i1 @_Z26gmx_ana_index_check_sortedP15gmx_ana_index_t(ptr noundef readonly captures(none) %0) local_unnamed_addr #18 {
  %2 = getelementptr inbounds nuw i8, ptr %0, i64 8
  %3 = load i32, ptr %0, align 8, !tbaa !73
  %4 = add nsw i32 %3, -1
  %smax = tail call i32 @llvm.smax.i32(i32 %4, i32 0)
  %wide.trip.count = zext nneg i32 %smax to i64
  br label %5

5:                                                ; preds = %6, %1
  %indvars.iv = phi i64 [ %indvars.iv.next, %6 ], [ 0, %1 ]
  %exitcond = icmp eq i64 %indvars.iv, %wide.trip.count
  br i1 %exitcond, label %12, label %6

6:                                                ; preds = %5
  %7 = load ptr, ptr %2, align 8, !tbaa !108
  %indvars.iv.next = add nuw nsw i64 %indvars.iv, 1
  %8 = getelementptr inbounds nuw i32, ptr %7, i64 %indvars.iv.next
  %9 = load i32, ptr %8, align 4, !tbaa !36
  %10 = getelementptr inbounds nuw i32, ptr %7, i64 %indvars.iv
  %11 = load i32, ptr %10, align 4, !tbaa !36
  %.not = icmp sgt i32 %9, %11
  br i1 %.not, label %5, label %12, !llvm.loop !114

12:                                               ; preds = %5, %6
  %13 = sext i32 %4 to i64
  %.not8 = icmp sge i64 %indvars.iv, %13
  ret i1 %.not8
}